; Function Attrs: nounwind uwtable
define internal fastcc ptr @MYOBJ_gethello2(ptr noundef %0) unnamed_addr #0 {
  %2 = load i32, ptr @saved_idx2, align 4, !tbaa !8
  %3 = tail call ptr @CRYPTO_get_ex_data(ptr noundef %0, i32 noundef %2) #2
  %4 = tail call i32 @test_ptr(ptr noundef nonnull @.str.1, i32 noundef 171, ptr noundef nonnull @.str.13, ptr noundef %3) #2
  %.not = icmp eq i32 %4, 0
  br i1 %.not, label %7, label %5

5:                                                ; preds = %1
  %6 = load ptr, ptr %3, align 8, !tbaa !16
  br label %9

7:                                                ; preds = %1
  store i1 false, ptr @gbl_result, align 4
  %8 = getelementptr inbounds nuw i8, ptr %0, i64 20
  store i32 0, ptr %8, align 4, !tbaa !15
  br label %9

9:                                                ; preds = %7, %5
  %.0 = phi ptr [ %6, %5 ], [ null, %7 ]
  ret ptr %.0
}